target datalayout = "e-m:e-p270:32:32-p271:32:32-p272:64:64-i64:64-i128:128-f80:128-n8:16:32:64-S128"
target triple = "x86_64-pc-linux-gnu"

@xmlFree = external global ptr, align 8

; Function Attrs: nounwind uwtable
define internal zeroext i1 @php_dom_node_is_content_equal(ptr noundef %0, ptr noundef %1) #0 {
  %3 = alloca ptr, align 8
  %4 = alloca ptr, align 8
  %5 = alloca ptr, align 8
  %6 = alloca ptr, align 8
  %7 = alloca i8, align 1
  store ptr %0, ptr %3, align 8
  store ptr %1, ptr %4, align 8
  %8 = load ptr, ptr %3, align 8
  %9 = call ptr @xmlNodeGetContent(ptr noundef %8)
  store ptr %9, ptr %5, align 8
  %10 = load ptr, ptr %4, align 8
  %11 = call ptr @xmlNodeGetContent(ptr noundef %10)
  store ptr %11, ptr %6, align 8
  %12 = load ptr, ptr %5, align 8
  %13 = load ptr, ptr %6, align 8
  %14 = call i32 @xmlStrEqual(ptr noundef %12, ptr noundef %13)
  %15 = icmp ne i32 %14, 0
  %16 = zext i1 %15 to i8
  store i8 %16, ptr %7, align 1
  %17 = load ptr, ptr @xmlFree, align 8
  %18 = load ptr, ptr %5, align 8
  call void %17(ptr noundef %18)
  %19 = load ptr, ptr @xmlFree, align 8
  %20 = load ptr, ptr %6, align 8
  call void %19(ptr noundef %20)
  %21 = load i8, ptr %7, align 1
  %22 = trunc i8 %21 to i1
  ret i1 %22
}