; Function Attrs: nounwind uwtable
define internal fastcc zeroext i1 @php_dom_node_is_content_equal(ptr noundef %0, ptr noundef %1) unnamed_addr #0 {
  %3 = tail call ptr @xmlNodeGetContent(ptr noundef %0) #12
  %4 = tail call ptr @xmlNodeGetContent(ptr noundef %1) #12
  %5 = tail call i32 @xmlStrEqual(ptr noundef %3, ptr noundef %4) #12
  %6 = icmp ne i32 %5, 0
  %7 = load ptr, ptr @xmlFree, align 8
  tail call void %7(ptr noundef %3) #12
  %8 = load ptr, ptr @xmlFree, align 8
  tail call void %8(ptr noundef %4) #12
  ret i1 %6
}